; Function Attrs: mustprogress uwtable
define noundef i64 @_ZN6duckdb16CastColumnReader18GroupRowsAvailableEv(ptr noundef nonnull align 8 dereferenceable(624) %0) unnamed_addr #3 align 2 {
  %2 = getelementptr inbounds nuw i8, ptr %0, i64 544
  %3 = tail call noundef ptr @_ZNK6duckdb10unique_ptrINS_12ColumnReaderESt14default_deleteIS1_ELb1EEptEv(ptr noundef nonnull align 8 dereferenceable(8) %2)
  %4 = load ptr, ptr %3, align 8, !tbaa !3
  %5 = getelementptr inbounds nuw i8, ptr %4, i64 72
  %6 = load ptr, ptr %5, align 8
  %7 = tail call noundef i64 %6(ptr noundef nonnull align 8 dereferenceable(544) %3)
  ret i64 %7
}